; Function Attrs: mustprogress nounwind uwtable
define dso_local void @_ZNK4llvm11ms_demangle32ConversionOperatorIdentifierNode6outputERNS_16itanium_demangle12OutputBufferENS0_11OutputFlagsE(ptr nocapture noundef nonnull readonly align 8 dereferenceable(32) %0, ptr noundef nonnull align 8 dereferenceable(36) %1, i32 noundef %2) unnamed_addr #0 align 2 {
  %4 = getelementptr inbounds nuw i8, ptr %1, i64 8
  %5 = load i64, ptr %4, align 8
  %6 = add i64 %5, 8
  %7 = getelementptr inbounds nuw i8, ptr %1, i64 16
  %8 = load i64, ptr %7, align 8
  %9 = icmp ugt i64 %6, %8
  %.pre.i.i = load ptr, ptr %1, align 8
  br i1 %9, label %10, label %_ZN4llvm16itanium_demangle12OutputBuffer4growEm.exit.i.i

10:                                               ; preds = %3
  %11 = add i64 %5, 1000
  %12 = shl i64 %8, 1
  %spec.select.i.i.i = tail call i64 @llvm.umax.i64(i64 %12, i64 %11)
  store i64 %spec.select.i.i.i, ptr %7, align 8
  %13 = tail call ptr @realloc(ptr noundef %.pre.i.i, i64 noundef %spec.select.i.i.i) #16
  store ptr %13, ptr %1, align 8
  %14 = icmp eq ptr %13, null
  br i1 %14, label %15, label %._ZN4llvm16itanium_demangle12OutputBuffer4growEm.exit_crit_edge.i.i

._ZN4llvm16itanium_demangle12OutputBuffer4growEm.exit_crit_edge.i.i: ; preds = %10
  %.pre4.i.i = load i64, ptr %4, align 8
  br label %_ZN4llvm16itanium_demangle12OutputBuffer4growEm.exit.i.i

15:                                               ; preds = %10
  tail call void @abort() #17
  unreachable

_ZN4llvm16itanium_demangle12OutputBuffer4growEm.exit.i.i: ; preds = %._ZN4llvm16itanium_demangle12OutputBuffer4growEm.exit_crit_edge.i.i, %3
  %16 = phi i64 [ %5, %3 ], [ %.pre4.i.i, %._ZN4llvm16itanium_demangle12OutputBuffer4growEm.exit_crit_edge.i.i ]
  %17 = phi ptr [ %.pre.i.i, %3 ], [ %13, %._ZN4llvm16itanium_demangle12OutputBuffer4growEm.exit_crit_edge.i.i ]
  %18 = getelementptr inbounds i8, ptr %17, i64 %16
  store i64 8245937404618567791, ptr %18, align 1
  %19 = load i64, ptr %4, align 8
  %20 = add i64 %19, 8
  store i64 %20, ptr %4, align 8
  tail call void @_ZNK4llvm11ms_demangle14IdentifierNode24outputTemplateParametersERNS_16itanium_demangle12OutputBufferENS0_11OutputFlagsE(ptr noundef nonnull align 8 dereferenceable(24) %0, ptr noundef nonnull align 8 dereferenceable(36) %1, i32 noundef %2)
  %21 = load i64, ptr %4, align 8
  %22 = add i64 %21, 1
  %23 = load i64, ptr %7, align 8
  %24 = icmp ugt i64 %22, %23
  %.pre.i.i7 = load ptr, ptr %1, align 8
  br i1 %24, label %25, label %_ZN4llvm16itanium_demangle12OutputBuffer4growEm.exit.i.i8

25:                                               ; preds = %_ZN4llvm16itanium_demangle12OutputBuffer4growEm.exit.i.i
  %26 = add i64 %21, 993
  %27 = shl i64 %23, 1
  %spec.select.i.i.i9 = tail call i64 @llvm.umax.i64(i64 %27, i64 %26)
  store i64 %spec.select.i.i.i9, ptr %7, align 8
  %28 = tail call ptr @realloc(ptr noundef %.pre.i.i7, i64 noundef %spec.select.i.i.i9) #16
  store ptr %28, ptr %1, align 8
  %29 = icmp eq ptr %28, null
  br i1 %29, label %30, label %._ZN4llvm16itanium_demangle12OutputBuffer4growEm.exit_crit_edge.i.i10

._ZN4llvm16itanium_demangle12OutputBuffer4growEm.exit_crit_edge.i.i10: ; preds = %25
  %.pre4.i.i11 = load i64, ptr %4, align 8
  br label %_ZN4llvm16itanium_demangle12OutputBuffer4growEm.exit.i.i8

30:                                               ; preds = %25
  tail call void @abort() #17
  unreachable

_ZN4llvm16itanium_demangle12OutputBuffer4growEm.exit.i.i8: ; preds = %._ZN4llvm16itanium_demangle12OutputBuffer4growEm.exit_crit_edge.i.i10, %_ZN4llvm16itanium_demangle12OutputBuffer4growEm.exit.i.i
  %31 = phi i64 [ %21, %_ZN4llvm16itanium_demangle12OutputBuffer4growEm.exit.i.i ], [ %.pre4.i.i11, %._ZN4llvm16itanium_demangle12OutputBuffer4growEm.exit_crit_edge.i.i10 ]
  %32 = phi ptr [ %.pre.i.i7, %_ZN4llvm16itanium_demangle12OutputBuffer4growEm.exit.i.i ], [ %28, %._ZN4llvm16itanium_demangle12OutputBuffer4growEm.exit_crit_edge.i.i10 ]
  %33 = getelementptr inbounds i8, ptr %32, i64 %31
  store i8 32, ptr %33, align 1
  %34 = load i64, ptr %4, align 8
  %35 = add i64 %34, 1
  store i64 %35, ptr %4, align 8
  %36 = getelementptr inbounds nuw i8, ptr %0, i64 24
  %37 = load ptr, ptr %36, align 8
  %38 = load ptr, ptr %37, align 8
  %39 = getelementptr inbounds i8, ptr %38, i64 16
  %40 = load ptr, ptr %39, align 8
  tail call void %40(ptr noundef nonnull align 8 dereferenceable(13) %37, ptr noundef nonnull align 8 dereferenceable(36) %1, i32 noundef %2) #15
  ret void
}